target datalayout = "e-m:e-p270:32:32-p271:32:32-p272:64:64-i64:64-i128:128-f80:128-n8:16:32:64-S128"
target triple = "x86_64-pc-linux-gnu"

%struct.b2World = type { %struct.b2ArenaAllocator, %struct.b2BroadPhase, %struct.b2ConstraintGraph, %struct.b2IdPool, %struct.b2BodyArray, %struct.b2IdPool, %struct.b2SolverSetArray, %struct.b2IdPool, %struct.b2JointArray, %struct.b2IdPool, %struct.b2ContactArray, %struct.b2IdPool, %struct.b2IslandArray, %struct.b2IdPool, %struct.b2IdPool, %struct.b2ShapeArray, %struct.b2ChainShapeArray, %struct.b2SensorArray, %struct.b2TaskContextArray, %struct.b2SensorTaskContextArray, %struct.b2BodyMoveEventArray, %struct.b2SensorBeginTouchEventArray, %struct.b2ContactBeginTouchEventArray, [2 x %struct.b2SensorEndTouchEventArray], [2 x %struct.b2ContactEndTouchEventArray], i32, %struct.b2ContactHitEventArray, %struct.b2BitSet, %struct.b2BitSet, %struct.b2BitSet, i64, i32, %struct.b2Vec2, float, float, float, float, float, float, float, float, ptr, ptr, i16, %struct.b2Profile, ptr, ptr, ptr, ptr, i32, ptr, ptr, ptr, ptr, ptr, float, i32, i32, i16, i8, i8, i8, i8, i8, i8 }
%struct.b2ArenaAllocator = type { ptr, i32, i32, i32, i32, %struct.b2ArenaEntryArray }
%struct.b2ArenaEntryArray = type { ptr, i32, i32 }
%struct.b2BroadPhase = type { [3 x %struct.b2DynamicTree], i32, %struct.b2HashSet, %struct.b2IntArray, ptr, ptr, i32, %struct.b2AtomicInt, %struct.b2HashSet }
%struct.b2DynamicTree = type { ptr, i32, i32, i32, i32, i32, ptr, ptr, ptr, ptr, i32 }
%struct.b2IntArray = type { ptr, i32, i32 }
%struct.b2AtomicInt = type { i32 }
%struct.b2HashSet = type { ptr, i32, i32 }
%struct.b2ConstraintGraph = type { [12 x %struct.b2GraphColor] }
%struct.b2GraphColor = type { %struct.b2BitSet, %struct.b2ContactSimArray, %struct.b2JointSimArray, %union.anon }
%struct.b2ContactSimArray = type { ptr, i32, i32 }
%struct.b2JointSimArray = type { ptr, i32, i32 }
%union.anon = type { ptr }
%struct.b2BodyArray = type { ptr, i32, i32 }
%struct.b2SolverSetArray = type { ptr, i32, i32 }
%struct.b2JointArray = type { ptr, i32, i32 }
%struct.b2ContactArray = type { ptr, i32, i32 }
%struct.b2IslandArray = type { ptr, i32, i32 }
%struct.b2IdPool = type { %struct.b2IntArray, i32 }
%struct.b2ShapeArray = type { ptr, i32, i32 }
%struct.b2ChainShapeArray = type { ptr, i32, i32 }
%struct.b2SensorArray = type { ptr, i32, i32 }
%struct.b2TaskContextArray = type { ptr, i32, i32 }
%struct.b2SensorTaskContextArray = type { ptr, i32, i32 }
%struct.b2BodyMoveEventArray = type { ptr, i32, i32 }
%struct.b2SensorBeginTouchEventArray = type { ptr, i32, i32 }
%struct.b2ContactBeginTouchEventArray = type { ptr, i32, i32 }
%struct.b2SensorEndTouchEventArray = type { ptr, i32, i32 }
%struct.b2ContactEndTouchEventArray = type { ptr, i32, i32 }
%struct.b2ContactHitEventArray = type { ptr, i32, i32 }
%struct.b2BitSet = type { ptr, i32, i32 }
%struct.b2Vec2 = type { float, float }
%struct.b2Profile = type { float, float, float, float, float, float, float, float, float, float, float, float, float, float, float, float, float, float, float, float, float, float }
%struct.b2WorldId = type { i16, i16 }
%struct.b2Counters = type { i32, i32, i32, i32, i32, i32, i32, i32, i32, i32, [12 x i32] }

@b2_worlds = hidden global [128 x %struct.b2World] zeroinitializer, align 16

; Function Attrs: inlinehint nounwind uwtable
define internal i32 @b2MaxInt(i32 noundef %0, i32 noundef %1) #5 {
  %3 = alloca i32, align 4
  %4 = alloca i32, align 4
  store i32 %0, ptr %3, align 4, !tbaa !3
  store i32 %1, ptr %4, align 4, !tbaa !3
  %5 = load i32, ptr %3, align 4, !tbaa !3
  %6 = load i32, ptr %4, align 4, !tbaa !3
  %7 = icmp sgt i32 %5, %6
  br i1 %7, label %8, label %10

8:                                                ; preds = %2
  %9 = load i32, ptr %3, align 4, !tbaa !3
  br label %12

10:                                               ; preds = %2
  %11 = load i32, ptr %4, align 4, !tbaa !3
  br label %12

12:                                               ; preds = %10, %8
  %13 = phi i32 [ %9, %8 ], [ %11, %10 ]
  ret i32 %13
}

; Function Attrs: inlinehint nounwind uwtable
define internal i32 @b2GetIdCount(ptr noundef %0) #5 {
  %2 = alloca ptr, align 8
  store ptr %0, ptr %2, align 8, !tbaa !474
  %3 = load ptr, ptr %2, align 8, !tbaa !474
  %4 = getelementptr inbounds nuw %struct.b2IdPool, ptr %3, i32 0, i32 1
  %5 = load i32, ptr %4, align 8, !tbaa !476
  %6 = load ptr, ptr %2, align 8, !tbaa !474
  %7 = getelementptr inbounds nuw %struct.b2IdPool, ptr %6, i32 0, i32 0
  %8 = getelementptr inbounds nuw %struct.b2IntArray, ptr %7, i32 0, i32 1
  %9 = load i32, ptr %8, align 8, !tbaa !477
  %10 = sub nsw i32 %5, %9
  ret i32 %10
}

; Function Attrs: nounwind uwtable
define hidden ptr @b2GetWorldFromId(i32 %0) #0 {
  %2 = alloca %struct.b2WorldId, align 2
  %3 = alloca ptr, align 8
  store i32 %0, ptr %2, align 2
  call void @llvm.lifetime.start.p0(i64 8, ptr %3) #10
  %4 = getelementptr inbounds nuw %struct.b2WorldId, ptr %2, i32 0, i32 0
  %5 = load i16, ptr %4, align 2, !tbaa !44
  %6 = zext i16 %5 to i32
  %7 = sub nsw i32 %6, 1
  %8 = sext i32 %7 to i64
  %9 = getelementptr inbounds %struct.b2World, ptr @b2_worlds, i64 %8
  store ptr %9, ptr %3, align 8, !tbaa !47
  %10 = load ptr, ptr %3, align 8, !tbaa !47
  call void @llvm.lifetime.end.p0(i64 8, ptr %3) #10
  ret ptr %10
}

; Function Attrs: nounwind uwtable
define void @b2World_GetCounters(ptr dead_on_unwind noalias writable sret(%struct.b2Counters) align 4 %0, i32 %1) #0 {
  %3 = alloca %struct.b2WorldId, align 2
  %4 = alloca ptr, align 8
  %5 = alloca ptr, align 8
  %6 = alloca ptr, align 8
  %7 = alloca ptr, align 8
  %8 = alloca i32, align 4
  store i32 %1, ptr %3, align 2
  call void @llvm.lifetime.start.p0(i64 8, ptr %4) #10
  %9 = load i32, ptr %3, align 2
  %10 = call ptr @b2GetWorldFromId(i32 %9)
  store ptr %10, ptr %4, align 8, !tbaa !47
  call void @llvm.memset.p0.i64(ptr align 4 %0, i8 0, i64 88, i1 false)
  %11 = load ptr, ptr %4, align 8, !tbaa !47
  %12 = getelementptr inbounds nuw %struct.b2World, ptr %11, i32 0, i32 3
  %13 = call i32 @b2GetIdCount(ptr noundef %12)
  %14 = getelementptr inbounds nuw %struct.b2Counters, ptr %0, i32 0, i32 0
  store i32 %13, ptr %14, align 4, !tbaa !459
  %15 = load ptr, ptr %4, align 8, !tbaa !47
  %16 = getelementptr inbounds nuw %struct.b2World, ptr %15, i32 0, i32 13
  %17 = call i32 @b2GetIdCount(ptr noundef %16)
  %18 = getelementptr inbounds nuw %struct.b2Counters, ptr %0, i32 0, i32 1
  store i32 %17, ptr %18, align 4, !tbaa !461
  %19 = load ptr, ptr %4, align 8, !tbaa !47
  %20 = getelementptr inbounds nuw %struct.b2World, ptr %19, i32 0, i32 9
  %21 = call i32 @b2GetIdCount(ptr noundef %20)
  %22 = getelementptr inbounds nuw %struct.b2Counters, ptr %0, i32 0, i32 2
  store i32 %21, ptr %22, align 4, !tbaa !462
  %23 = load ptr, ptr %4, align 8, !tbaa !47
  %24 = getelementptr inbounds nuw %struct.b2World, ptr %23, i32 0, i32 7
  %25 = call i32 @b2GetIdCount(ptr noundef %24)
  %26 = getelementptr inbounds nuw %struct.b2Counters, ptr %0, i32 0, i32 3
  store i32 %25, ptr %26, align 4, !tbaa !463
  %27 = load ptr, ptr %4, align 8, !tbaa !47
  %28 = getelementptr inbounds nuw %struct.b2World, ptr %27, i32 0, i32 11
  %29 = call i32 @b2GetIdCount(ptr noundef %28)
  %30 = getelementptr inbounds nuw %struct.b2Counters, ptr %0, i32 0, i32 4
  store i32 %29, ptr %30, align 4, !tbaa !464
  call void @llvm.lifetime.start.p0(i64 8, ptr %5) #10
  %31 = load ptr, ptr %4, align 8, !tbaa !47
  %32 = getelementptr inbounds nuw %struct.b2World, ptr %31, i32 0, i32 1
  %33 = getelementptr inbounds nuw %struct.b2BroadPhase, ptr %32, i32 0, i32 0
  %34 = getelementptr inbounds [3 x %struct.b2DynamicTree], ptr %33, i64 0, i64 0
  %35 = getelementptr inbounds %struct.b2DynamicTree, ptr %34, i64 0
  store ptr %35, ptr %5, align 8, !tbaa !465
  %36 = load ptr, ptr %5, align 8, !tbaa !465
  %37 = call i32 @b2DynamicTree_GetHeight(ptr noundef %36)
  %38 = getelementptr inbounds nuw %struct.b2Counters, ptr %0, i32 0, i32 6
  store i32 %37, ptr %38, align 4, !tbaa !467
  call void @llvm.lifetime.start.p0(i64 8, ptr %6) #10
  %39 = load ptr, ptr %4, align 8, !tbaa !47
  %40 = getelementptr inbounds nuw %struct.b2World, ptr %39, i32 0, i32 1
  %41 = getelementptr inbounds nuw %struct.b2BroadPhase, ptr %40, i32 0, i32 0
  %42 = getelementptr inbounds [3 x %struct.b2DynamicTree], ptr %41, i64 0, i64 0
  %43 = getelementptr inbounds %struct.b2DynamicTree, ptr %42, i64 2
  store ptr %43, ptr %6, align 8, !tbaa !465
  call void @llvm.lifetime.start.p0(i64 8, ptr %7) #10
  %44 = load ptr, ptr %4, align 8, !tbaa !47
  %45 = getelementptr inbounds nuw %struct.b2World, ptr %44, i32 0, i32 1
  %46 = getelementptr inbounds nuw %struct.b2BroadPhase, ptr %45, i32 0, i32 0
  %47 = getelementptr inbounds [3 x %struct.b2DynamicTree], ptr %46, i64 0, i64 0
  %48 = getelementptr inbounds %struct.b2DynamicTree, ptr %47, i64 1
  store ptr %48, ptr %7, align 8, !tbaa !465
  %49 = load ptr, ptr %6, align 8, !tbaa !465
  %50 = call i32 @b2DynamicTree_GetHeight(ptr noundef %49)
  %51 = load ptr, ptr %7, align 8, !tbaa !465
  %52 = call i32 @b2DynamicTree_GetHeight(ptr noundef %51)
  %53 = call i32 @b2MaxInt(i32 noundef %50, i32 noundef %52)
  %54 = getelementptr inbounds nuw %struct.b2Counters, ptr %0, i32 0, i32 7
  store i32 %53, ptr %54, align 4, !tbaa !468
  %55 = load ptr, ptr %4, align 8, !tbaa !47
  %56 = getelementptr inbounds nuw %struct.b2World, ptr %55, i32 0, i32 0
  %57 = call i32 @b2GetMaxArenaAllocation(ptr noundef %56)
  %58 = getelementptr inbounds nuw %struct.b2Counters, ptr %0, i32 0, i32 5
  store i32 %57, ptr %58, align 4, !tbaa !469
  %59 = call i32 @b2GetByteCount()
  %60 = getelementptr inbounds nuw %struct.b2Counters, ptr %0, i32 0, i32 8
  store i32 %59, ptr %60, align 4, !tbaa !470
  %61 = load ptr, ptr %4, align 8, !tbaa !47
  %62 = getelementptr inbounds nuw %struct.b2World, ptr %61, i32 0, i32 57
  %63 = load i32, ptr %62, align 8, !tbaa !161
  %64 = getelementptr inbounds nuw %struct.b2Counters, ptr %0, i32 0, i32 9
  store i32 %63, ptr %64, align 4, !tbaa !471
  call void @llvm.lifetime.start.p0(i64 4, ptr %8) #10
  store i32 0, ptr %8, align 4, !tbaa !3
  br label %65

65:                                               ; preds = %93, %2
  %66 = load i32, ptr %8, align 4, !tbaa !3
  %67 = icmp slt i32 %66, 12
  br i1 %67, label %69, label %68

68:                                               ; preds = %65
  call void @llvm.lifetime.end.p0(i64 4, ptr %8) #10
  br label %96

69:                                               ; preds = %65
  %70 = load ptr, ptr %4, align 8, !tbaa !47
  %71 = getelementptr inbounds nuw %struct.b2World, ptr %70, i32 0, i32 2
  %72 = getelementptr inbounds nuw %struct.b2ConstraintGraph, ptr %71, i32 0, i32 0
  %73 = load i32, ptr %8, align 4, !tbaa !3
  %74 = sext i32 %73 to i64
  %75 = getelementptr inbounds [12 x %struct.b2GraphColor], ptr %72, i64 0, i64 %74
  %76 = getelementptr inbounds nuw %struct.b2GraphColor, ptr %75, i32 0, i32 1
  %77 = getelementptr inbounds nuw %struct.b2ContactSimArray, ptr %76, i32 0, i32 1
  %78 = load i32, ptr %77, align 8, !tbaa !262
  %79 = load ptr, ptr %4, align 8, !tbaa !47
  %80 = getelementptr inbounds nuw %struct.b2World, ptr %79, i32 0, i32 2
  %81 = getelementptr inbounds nuw %struct.b2ConstraintGraph, ptr %80, i32 0, i32 0
  %82 = load i32, ptr %8, align 4, !tbaa !3
  %83 = sext i32 %82 to i64
  %84 = getelementptr inbounds [12 x %struct.b2GraphColor], ptr %81, i64 0, i64 %83
  %85 = getelementptr inbounds nuw %struct.b2GraphColor, ptr %84, i32 0, i32 2
  %86 = getelementptr inbounds nuw %struct.b2JointSimArray, ptr %85, i32 0, i32 1
  %87 = load i32, ptr %86, align 8, !tbaa !472
  %88 = add nsw i32 %78, %87
  %89 = getelementptr inbounds nuw %struct.b2Counters, ptr %0, i32 0, i32 10
  %90 = load i32, ptr %8, align 4, !tbaa !3
  %91 = sext i32 %90 to i64
  %92 = getelementptr inbounds [12 x i32], ptr %89, i64 0, i64 %91
  store i32 %88, ptr %92, align 4, !tbaa !3
  br label %93

93:                                               ; preds = %69
  %94 = load i32, ptr %8, align 4, !tbaa !3
  %95 = add nsw i32 %94, 1
  store i32 %95, ptr %8, align 4, !tbaa !3
  br label %65, !llvm.loop !473

96:                                               ; preds = %68
  call void @llvm.lifetime.end.p0(i64 8, ptr %7) #10
  call void @llvm.lifetime.end.p0(i64 8, ptr %6) #10
  call void @llvm.lifetime.end.p0(i64 8, ptr %5) #10
  call void @llvm.lifetime.end.p0(i64 8, ptr %4) #10
  ret void
}