; Function Attrs: nounwind uwtable
define void @b2World_GetCounters(ptr dead_on_unwind noalias writable writeonly sret(%struct.b2Counters) align 4 captures(none) initializes((0, 88)) %0, i32 %1) local_unnamed_addr #0 {
  %3 = and i32 %1, 65535
  %4 = zext nneg i32 %3 to i64
  %5 = getelementptr %struct.b2World, ptr @b2_worlds, i64 %4
  %6 = getelementptr i8, ptr %5, i64 -1792
  %7 = getelementptr inbounds nuw i8, ptr %0, i64 40
  tail call void @llvm.memset.p0.i64(ptr noundef nonnull align 4 dereferenceable(88) %7, i8 0, i64 48, i1 false)
  %8 = getelementptr i8, ptr %5, i64 -776
  %.val = load i32, ptr %8, align 8, !tbaa !378
  %9 = getelementptr i8, ptr %5, i64 -768
  %.val19 = load i32, ptr %9, align 16, !tbaa !220
  %10 = sub nsw i32 %.val19, %.val
  store i32 %10, ptr %0, align 4, !tbaa !379
  %11 = getelementptr i8, ptr %5, i64 -576
  %.val20 = load i32, ptr %11, align 16, !tbaa !378
  %12 = getelementptr i8, ptr %5, i64 -568
  %.val21 = load i32, ptr %12, align 8, !tbaa !220
  %13 = sub nsw i32 %.val21, %.val20
  %14 = getelementptr inbounds nuw i8, ptr %0, i64 4
  store i32 %13, ptr %14, align 4, !tbaa !381
  %15 = getelementptr i8, ptr %5, i64 -656
  %.val22 = load i32, ptr %15, align 16, !tbaa !378
  %16 = getelementptr i8, ptr %5, i64 -648
  %.val23 = load i32, ptr %16, align 8, !tbaa !220
  %17 = sub nsw i32 %.val23, %.val22
  %18 = getelementptr inbounds nuw i8, ptr %0, i64 8
  store i32 %17, ptr %18, align 4, !tbaa !382
  %19 = getelementptr i8, ptr %5, i64 -696
  %.val24 = load i32, ptr %19, align 8, !tbaa !378
  %20 = getelementptr i8, ptr %5, i64 -688
  %.val25 = load i32, ptr %20, align 16, !tbaa !220
  %21 = sub nsw i32 %.val25, %.val24
  %22 = getelementptr inbounds nuw i8, ptr %0, i64 12
  store i32 %21, ptr %22, align 4, !tbaa !383
  %23 = getelementptr i8, ptr %5, i64 -616
  %.val26 = load i32, ptr %23, align 8, !tbaa !378
  %24 = getelementptr i8, ptr %5, i64 -608
  %.val27 = load i32, ptr %24, align 16, !tbaa !220
  %25 = sub nsw i32 %.val27, %.val26
  %26 = getelementptr inbounds nuw i8, ptr %0, i64 16
  store i32 %25, ptr %26, align 4, !tbaa !384
  %27 = getelementptr i8, ptr %5, i64 -1752
  %28 = tail call i32 @b2DynamicTree_GetHeight(ptr noundef nonnull %27) #22
  %29 = getelementptr inbounds nuw i8, ptr %0, i64 24
  store i32 %28, ptr %29, align 4, !tbaa !385
  %30 = getelementptr i8, ptr %5, i64 -1608
  %31 = getelementptr i8, ptr %5, i64 -1680
  %32 = tail call i32 @b2DynamicTree_GetHeight(ptr noundef nonnull %30) #22
  %33 = tail call i32 @b2DynamicTree_GetHeight(ptr noundef nonnull %31) #22
  %34 = tail call noundef i32 @llvm.smax.i32(i32 %32, i32 %33)
  %35 = getelementptr inbounds nuw i8, ptr %0, i64 28
  store i32 %34, ptr %35, align 4, !tbaa !386
  %36 = tail call i32 @b2GetMaxArenaAllocation(ptr noundef %6) #22
  %37 = getelementptr inbounds nuw i8, ptr %0, i64 20
  store i32 %36, ptr %37, align 4, !tbaa !387
  %38 = tail call i32 @b2GetByteCount() #22
  %39 = getelementptr inbounds nuw i8, ptr %0, i64 32
  store i32 %38, ptr %39, align 4, !tbaa !388
  %40 = getelementptr i8, ptr %5, i64 -16
  %41 = load i32, ptr %40, align 16, !tbaa !111
  %42 = getelementptr inbounds nuw i8, ptr %0, i64 36
  store i32 %41, ptr %42, align 4, !tbaa !389
  %43 = getelementptr i8, ptr %5, i64 -1456
  %44 = getelementptr inbounds nuw i8, ptr %0, i64 40
  br label %46

45:                                               ; preds = %46
  ret void

46:                                               ; preds = %2, %46
  %indvars.iv = phi i64 [ 0, %2 ], [ %indvars.iv.next, %46 ]
  %47 = getelementptr inbounds nuw [12 x %struct.b2GraphColor], ptr %43, i64 0, i64 %indvars.iv
  %48 = getelementptr inbounds nuw i8, ptr %47, i64 24
  %49 = load i32, ptr %48, align 8, !tbaa !211
  %50 = getelementptr inbounds nuw i8, ptr %47, i64 40
  %51 = load i32, ptr %50, align 8, !tbaa !390
  %52 = add nsw i32 %51, %49
  %53 = getelementptr inbounds nuw [12 x i32], ptr %44, i64 0, i64 %indvars.iv
  store i32 %52, ptr %53, align 4, !tbaa !86
  %indvars.iv.next = add nuw nsw i64 %indvars.iv, 1
  %exitcond.not = icmp eq i64 %indvars.iv.next, 12
  br i1 %exitcond.not, label %45, label %46, !llvm.loop !391
}